target datalayout = "e-m:e-p270:32:32-p271:32:32-p272:64:64-i64:64-i128:128-f80:128-n8:16:32:64-S128"
target triple = "x86_64-pc-linux-gnu"

%struct._zend_phpdbg_globals = type { [11 x %struct._zend_array], %struct._zend_array, %struct._zend_array, ptr, ptr, %struct.phpdbg_frame_t, i32, ptr, %struct.phpdbg_lexer_data, ptr, %struct.sigaction, i32, i64, %struct.phpdbg_btree, %struct.phpdbg_btree, %struct._zend_array, %struct._zend_array, %struct._zend_array, %struct._zend_array, ptr, ptr, ptr, i8, ptr, ptr, ptr, i64, ptr, %struct._zval_struct, i32, i32, i8, i8, ptr, ptr, ptr, %struct._zend_array, ptr, ptr, ptr, [3 x %struct.anon.8], ptr, %struct.anon.9, i64, [2 x ptr], [3 x ptr], ptr, i8, ptr, ptr, [500 x i8], i32, %struct.phpdbg_signal_safe_mem, ptr, i64, ptr, i64 }
%struct.phpdbg_frame_t = type { i32, ptr, ptr }
%struct.phpdbg_lexer_data = type { i32, ptr, ptr, ptr, ptr, i32 }
%struct.sigaction = type { %union.anon.2, %struct.__sigset_t, i32, ptr }
%union.anon.2 = type { ptr }
%struct.__sigset_t = type { [16 x i64] }
%struct.phpdbg_btree = type { i64, i64, i8, ptr }
%struct._zval_struct = type { %union._zend_value, %union.anon.4, %union.anon.7 }
%union._zend_value = type { i64 }
%union.anon.4 = type { i32 }
%union.anon.7 = type { i32 }
%struct._zend_array = type { %struct._zend_refcounted_h, %union.anon.0, i32, %union.anon.1, i32, i32, i32, i32, i64, ptr }
%struct._zend_refcounted_h = type { i32, %union.anon }
%union.anon = type { i32 }
%union.anon.0 = type { i32 }
%union.anon.1 = type { ptr }
%struct.anon.8 = type { i32 }
%struct.anon.9 = type { i8, i32, i32, ptr, i32 }
%struct.phpdbg_signal_safe_mem = type { ptr, i8, ptr, ptr }
%struct._zend_executor_globals = type { %struct._zval_struct, %struct._zval_struct, [32 x ptr], ptr, ptr, %struct._zend_array, %struct._zend_array, ptr, i32, i8, %struct._zval_struct, i32, ptr, ptr, ptr, ptr, ptr, ptr, i64, ptr, ptr, i32, ptr, i32, i64, i32, i32, i32, i8, i8, %struct.zend_atomic_bool_s, %struct.zend_atomic_bool_s, ptr, i64, ptr, ptr, %struct._zend_array, %struct._zend_array, i32, i8, %struct._zval_struct, %struct._zval_struct, %struct._zend_stack, %struct._zend_stack, %struct._zend_stack, ptr, i32, i32, i64, ptr, ptr, ptr, %struct._zend_objects_store, %struct._zend_lazy_objects_store, ptr, ptr, ptr, [3 x %struct._zend_op], ptr, i8, i8, i64, i32, i32, ptr, [16 x %struct._HashTableIterator], ptr, %union._zend_function, %struct._zend_op, %struct._zend_array, i64, %struct.zend_get_gc_buffer, ptr, ptr, ptr, i64, i8, i32, ptr, ptr, i64, %struct._zend_call_stack, i64, i64, %struct._zend_strtod_state, [6 x ptr] }
%struct.zend_atomic_bool_s = type { i8 }
%struct._zend_stack = type { i32, i32, i32, ptr }
%struct._zend_objects_store = type { ptr, i32, i32, i32 }
%struct._zend_lazy_objects_store = type { %struct._zend_array }
%struct._HashTableIterator = type { ptr, i32, i32 }
%union._zend_function = type { %struct._zend_op_array }
%struct._zend_op_array = type { i8, [3 x i8], i32, ptr, ptr, ptr, i32, i32, ptr, ptr, ptr, ptr, i32, ptr, i32, i32, i32, ptr, ptr, ptr, ptr, ptr, i32, i32, ptr, ptr, ptr, i32, i32, i32, i32, ptr, ptr, [6 x ptr] }
%struct._zend_op = type { ptr, %union._znode_op, %union._znode_op, %union._znode_op, i32, i32, i8, i8, i8, i8 }
%union._znode_op = type { i32 }
%struct.zend_get_gc_buffer = type { ptr, ptr, ptr }
%struct._zend_call_stack = type { ptr, i64 }
%struct._zend_strtod_state = type { [8 x ptr], ptr, ptr }
%struct.__jmp_buf_tag = type { [8 x i64], i32, %struct.__sigset_t }
%struct._Bucket = type { %struct._zval_struct, i64, ptr }
%struct._zend_string = type { %struct._zend_refcounted_h, i64, i64, [1 x i8] }
%struct.anon.5 = type { i8, i8, %union.anon.6 }
%union.anon.6 = type { i16 }

@phpdbg_globals = external global %struct._zend_phpdbg_globals, align 8
@.str.19 = private unnamed_addr constant [19 x i8] c"Included files: %d\00", align 1
@executor_globals = external global %struct._zend_executor_globals, align 8
@.str.20 = private unnamed_addr constant [57 x i8] c"Could not fetch included file count, invalid data source\00", align 1
@.str.21 = private unnamed_addr constant [9 x i8] c"File: %s\00", align 1
@.str.22 = private unnamed_addr constant [79 x i8] c"Could not fetch file name, invalid data source, aborting included file listing\00", align 1

; Function Attrs: alwaysinline nounwind uwtable
define internal zeroext i8 @zval_get_type(ptr noundef %0) #4 {
  %2 = alloca ptr, align 8
  store ptr %0, ptr %2, align 8, !tbaa !47
  %3 = load ptr, ptr %2, align 8, !tbaa !47
  %4 = getelementptr inbounds nuw %struct._zval_struct, ptr %3, i32 0, i32 1
  %5 = getelementptr inbounds nuw %struct.anon.5, ptr %4, i32 0, i32 0
  %6 = load i8, ptr %5, align 8, !tbaa !43
  ret i8 %6
}

; Function Attrs: alwaysinline nounwind uwtable
define internal i32 @zend_hash_num_elements(ptr noundef %0) #4 {
  %2 = alloca ptr, align 8
  store ptr %0, ptr %2, align 8, !tbaa !42
  %3 = load ptr, ptr %2, align 8, !tbaa !42
  %4 = getelementptr inbounds nuw %struct._zend_array, ptr %3, i32 0, i32 5
  %5 = load i32, ptr %4, align 4, !tbaa !134
  ret i32 %5
}

; Function Attrs: nounwind uwtable
define hidden i32 @phpdbg_do_info_files(ptr noundef %0) #0 {
  %2 = alloca i32, align 4
  %3 = alloca ptr, align 8
  %4 = alloca ptr, align 8
  %5 = alloca ptr, align 8
  %6 = alloca [1 x %struct.__jmp_buf_tag], align 16
  %7 = alloca i32, align 4
  %8 = alloca ptr, align 8
  %9 = alloca [1 x %struct.__jmp_buf_tag], align 16
  %10 = alloca ptr, align 8
  %11 = alloca ptr, align 8
  %12 = alloca ptr, align 8
  %13 = alloca ptr, align 8
  store ptr %0, ptr %3, align 8, !tbaa !4
  call void @llvm.lifetime.start.p0(i64 8, ptr %4) #8
  call void @llvm.lifetime.start.p0(i64 8, ptr %5) #8
  %14 = load ptr, ptr getelementptr inbounds nuw (%struct._zend_phpdbg_globals, ptr @phpdbg_globals, i32 0, i32 53), align 8, !tbaa !9
  store ptr %14, ptr %5, align 8, !tbaa !39
  call void @llvm.lifetime.start.p0(i64 200, ptr %6) #8
  store ptr %6, ptr getelementptr inbounds nuw (%struct._zend_phpdbg_globals, ptr @phpdbg_globals, i32 0, i32 53), align 8, !tbaa !9
  %15 = getelementptr inbounds [1 x %struct.__jmp_buf_tag], ptr %6, i64 0, i64 0
  %16 = call i32 @__sigsetjmp(ptr noundef %15, i32 noundef 0) #9
  %17 = icmp eq i32 %16, 0
  br i1 %17, label %18, label %22

18:                                               ; preds = %1
  %19 = load i32, ptr getelementptr inbounds ([3 x %struct.anon.8], ptr getelementptr inbounds nuw (%struct._zend_phpdbg_globals, ptr @phpdbg_globals, i32 0, i32 40), i64 0, i64 1), align 4, !tbaa !40
  %20 = call i32 @zend_hash_num_elements(ptr noundef getelementptr inbounds nuw (%struct._zend_executor_globals, ptr @executor_globals, i32 0, i32 6))
  %21 = call i32 (i32, i32, ptr, ...) @phpdbg_print(i32 noundef 2, i32 noundef %19, ptr noundef @.str.19, i32 noundef %20)
  br label %26

22:                                               ; preds = %1
  %23 = load ptr, ptr %5, align 8, !tbaa !39
  store ptr %23, ptr getelementptr inbounds nuw (%struct._zend_phpdbg_globals, ptr @phpdbg_globals, i32 0, i32 53), align 8, !tbaa !9
  %24 = load i32, ptr getelementptr inbounds ([3 x %struct.anon.8], ptr getelementptr inbounds nuw (%struct._zend_phpdbg_globals, ptr @phpdbg_globals, i32 0, i32 40), i64 0, i64 1), align 4, !tbaa !40
  %25 = call i32 (i32, i32, ptr, ...) @phpdbg_print(i32 noundef 1, i32 noundef %24, ptr noundef @.str.20)
  store i32 0, ptr %2, align 4
  store i32 1, ptr %7, align 4
  br label %28

26:                                               ; preds = %18
  %27 = load ptr, ptr %5, align 8, !tbaa !39
  store ptr %27, ptr getelementptr inbounds nuw (%struct._zend_phpdbg_globals, ptr @phpdbg_globals, i32 0, i32 53), align 8, !tbaa !9
  store i32 0, ptr %7, align 4
  br label %28

28:                                               ; preds = %26, %22
  call void @llvm.lifetime.end.p0(i64 200, ptr %6) #8
  call void @llvm.lifetime.end.p0(i64 8, ptr %5) #8
  %29 = load i32, ptr %7, align 4
  switch i32 %29, label %97 [
    i32 0, label %30
  ]

30:                                               ; preds = %28
  call void @llvm.lifetime.start.p0(i64 8, ptr %8) #8
  %31 = load ptr, ptr getelementptr inbounds nuw (%struct._zend_phpdbg_globals, ptr @phpdbg_globals, i32 0, i32 53), align 8, !tbaa !9
  store ptr %31, ptr %8, align 8, !tbaa !39
  call void @llvm.lifetime.start.p0(i64 200, ptr %9) #8
  store ptr %9, ptr getelementptr inbounds nuw (%struct._zend_phpdbg_globals, ptr @phpdbg_globals, i32 0, i32 53), align 8, !tbaa !9
  %32 = getelementptr inbounds [1 x %struct.__jmp_buf_tag], ptr %9, i64 0, i64 0
  %33 = call i32 @__sigsetjmp(ptr noundef %32, i32 noundef 0) #9
  %34 = icmp eq i32 %33, 0
  br i1 %34, label %35, label %91

35:                                               ; preds = %30
  br label %36

36:                                               ; preds = %35
  call void @llvm.lifetime.start.p0(i64 8, ptr %10) #8
  store ptr getelementptr inbounds nuw (%struct._zend_executor_globals, ptr @executor_globals, i32 0, i32 6), ptr %10, align 8, !tbaa !42
  call void @llvm.lifetime.start.p0(i64 8, ptr %11) #8
  %37 = load ptr, ptr %10, align 8, !tbaa !42
  %38 = getelementptr inbounds nuw %struct._zend_array, ptr %37, i32 0, i32 3
  %39 = load ptr, ptr %38, align 8, !tbaa !43
  %40 = getelementptr inbounds %struct._Bucket, ptr %39, i64 0
  store ptr %40, ptr %11, align 8, !tbaa !44
  call void @llvm.lifetime.start.p0(i64 8, ptr %12) #8
  %41 = load ptr, ptr %10, align 8, !tbaa !42
  %42 = getelementptr inbounds nuw %struct._zend_array, ptr %41, i32 0, i32 3
  %43 = load ptr, ptr %42, align 8, !tbaa !43
  %44 = load ptr, ptr %10, align 8, !tbaa !42
  %45 = getelementptr inbounds nuw %struct._zend_array, ptr %44, i32 0, i32 4
  %46 = load i32, ptr %45, align 8, !tbaa !46
  %47 = zext i32 %46 to i64
  %48 = getelementptr inbounds nuw %struct._Bucket, ptr %43, i64 %47
  store ptr %48, ptr %12, align 8, !tbaa !44
  %49 = load ptr, ptr %10, align 8, !tbaa !42
  %50 = getelementptr inbounds nuw %struct._zend_array, ptr %49, i32 0, i32 1
  %51 = load i32, ptr %50, align 8, !tbaa !43
  %52 = and i32 %51, 4
  %53 = icmp ne i32 %52, 0
  %54 = xor i1 %53, true
  call void @llvm.assume(i1 %54)
  br label %55

55:                                               ; preds = %85, %36
  %56 = load ptr, ptr %11, align 8, !tbaa !44
  %57 = load ptr, ptr %12, align 8, !tbaa !44
  %58 = icmp ne ptr %56, %57
  br i1 %58, label %59, label %88

59:                                               ; preds = %55
  call void @llvm.lifetime.start.p0(i64 8, ptr %13) #8
  %60 = load ptr, ptr %11, align 8, !tbaa !44
  %61 = getelementptr inbounds nuw %struct._Bucket, ptr %60, i32 0, i32 0
  store ptr %61, ptr %13, align 8, !tbaa !47
  %62 = load ptr, ptr %13, align 8, !tbaa !47
  %63 = call zeroext i8 @zval_get_type(ptr noundef %62)
  %64 = zext i8 %63 to i32
  %65 = icmp eq i32 %64, 0
  %66 = xor i1 %65, true
  %67 = xor i1 %66, true
  %68 = zext i1 %67 to i32
  %69 = sext i32 %68 to i64
  %70 = call i64 @llvm.expect.i64(i64 %69, i64 0)
  %71 = icmp ne i64 %70, 0
  br i1 %71, label %72, label %73

72:                                               ; preds = %59
  store i32 6, ptr %7, align 4
  br label %82

73:                                               ; preds = %59
  %74 = load ptr, ptr %11, align 8, !tbaa !44
  %75 = getelementptr inbounds nuw %struct._Bucket, ptr %74, i32 0, i32 2
  %76 = load ptr, ptr %75, align 8, !tbaa !49
  store ptr %76, ptr %4, align 8, !tbaa !52
  %77 = load i32, ptr getelementptr inbounds ([3 x %struct.anon.8], ptr getelementptr inbounds nuw (%struct._zend_phpdbg_globals, ptr @phpdbg_globals, i32 0, i32 40), i64 0, i64 1), align 4, !tbaa !40
  %78 = load ptr, ptr %4, align 8, !tbaa !52
  %79 = getelementptr inbounds nuw %struct._zend_string, ptr %78, i32 0, i32 3
  %80 = getelementptr inbounds [1 x i8], ptr %79, i64 0, i64 0
  %81 = call i32 (i32, i32, ptr, ...) @phpdbg_print(i32 noundef 3, i32 noundef %77, ptr noundef @.str.21, ptr noundef %80)
  store i32 0, ptr %7, align 4
  br label %82

82:                                               ; preds = %73, %72
  call void @llvm.lifetime.end.p0(i64 8, ptr %13) #8
  %83 = load i32, ptr %7, align 4
  switch i32 %83, label %99 [
    i32 0, label %84
    i32 6, label %85
  ]

84:                                               ; preds = %82
  br label %85

85:                                               ; preds = %84, %82
  %86 = load ptr, ptr %11, align 8, !tbaa !44
  %87 = getelementptr inbounds nuw %struct._Bucket, ptr %86, i32 1
  store ptr %87, ptr %11, align 8, !tbaa !44
  br label %55

88:                                               ; preds = %55
  call void @llvm.lifetime.end.p0(i64 8, ptr %12) #8
  call void @llvm.lifetime.end.p0(i64 8, ptr %11) #8
  call void @llvm.lifetime.end.p0(i64 8, ptr %10) #8
  br label %89

89:                                               ; preds = %88
  br label %90

90:                                               ; preds = %89
  br label %95

91:                                               ; preds = %30
  %92 = load ptr, ptr %8, align 8, !tbaa !39
  store ptr %92, ptr getelementptr inbounds nuw (%struct._zend_phpdbg_globals, ptr @phpdbg_globals, i32 0, i32 53), align 8, !tbaa !9
  %93 = load i32, ptr getelementptr inbounds ([3 x %struct.anon.8], ptr getelementptr inbounds nuw (%struct._zend_phpdbg_globals, ptr @phpdbg_globals, i32 0, i32 40), i64 0, i64 1), align 4, !tbaa !40
  %94 = call i32 (i32, i32, ptr, ...) @phpdbg_print(i32 noundef 1, i32 noundef %93, ptr noundef @.str.22)
  br label %95

95:                                               ; preds = %91, %90
  %96 = load ptr, ptr %8, align 8, !tbaa !39
  store ptr %96, ptr getelementptr inbounds nuw (%struct._zend_phpdbg_globals, ptr @phpdbg_globals, i32 0, i32 53), align 8, !tbaa !9
  call void @llvm.lifetime.end.p0(i64 200, ptr %9) #8
  call void @llvm.lifetime.end.p0(i64 8, ptr %8) #8
  store i32 0, ptr %2, align 4
  store i32 1, ptr %7, align 4
  br label %97

97:                                               ; preds = %95, %28
  call void @llvm.lifetime.end.p0(i64 8, ptr %4) #8
  %98 = load i32, ptr %2, align 4
  ret i32 %98

99:                                               ; preds = %82
  unreachable
}