; Function Attrs: nounwind uwtable
define hidden noundef i32 @phpdbg_do_info_files(ptr readnone captures(none) %0) #0 {
  %2 = alloca [1 x %struct.__jmp_buf_tag], align 16
  %3 = alloca [1 x %struct.__jmp_buf_tag], align 16
  %4 = load ptr, ptr getelementptr inbounds nuw (i8, ptr @phpdbg_globals, i64 2176), align 8, !tbaa !4
  call void @llvm.lifetime.start.p0(i64 200, ptr nonnull %2) #6
  store ptr %2, ptr getelementptr inbounds nuw (i8, ptr @phpdbg_globals, i64 2176), align 8, !tbaa !4
  %5 = call i32 @__sigsetjmp(ptr noundef nonnull %2, i32 noundef 0) #7
  %6 = icmp eq i32 %5, 0
  br i1 %6, label %10, label %7

7:                                                ; preds = %1
  store ptr %4, ptr getelementptr inbounds nuw (i8, ptr @phpdbg_globals, i64 2176), align 8, !tbaa !4
  %8 = load i32, ptr getelementptr inbounds nuw (i8, ptr @phpdbg_globals, i64 1508), align 4, !tbaa !38
  %9 = call i32 (i32, i32, ptr, ...) @phpdbg_print(i32 noundef 1, i32 noundef %8, ptr noundef nonnull @.str.20) #6
  call void @llvm.lifetime.end.p0(i64 200, ptr nonnull %2) #6
  br label %37

10:                                               ; preds = %1
  %11 = load i32, ptr getelementptr inbounds nuw (i8, ptr @phpdbg_globals, i64 1508), align 4, !tbaa !38
  %12 = load i32, ptr getelementptr inbounds nuw (i8, ptr @executor_globals, i64 388), align 4, !tbaa !40
  %13 = call i32 (i32, i32, ptr, ...) @phpdbg_print(i32 noundef 2, i32 noundef %11, ptr noundef nonnull @.str.19, i32 noundef %12) #6
  call void @llvm.lifetime.end.p0(i64 200, ptr nonnull %2) #6
  call void @llvm.lifetime.start.p0(i64 200, ptr nonnull %3) #6
  store ptr %3, ptr getelementptr inbounds nuw (i8, ptr @phpdbg_globals, i64 2176), align 8, !tbaa !4
  %14 = call i32 @__sigsetjmp(ptr noundef nonnull %3, i32 noundef 0) #7
  %15 = icmp eq i32 %14, 0
  br i1 %15, label %16, label %34

16:                                               ; preds = %10
  %17 = load ptr, ptr getelementptr inbounds nuw (i8, ptr @executor_globals, i64 376), align 8, !tbaa !41
  %18 = load i32, ptr getelementptr inbounds nuw (i8, ptr @executor_globals, i64 384), align 8, !tbaa !42
  %19 = zext i32 %18 to i64
  %20 = getelementptr inbounds nuw %struct._Bucket, ptr %17, i64 %19
  %21 = load i32, ptr getelementptr inbounds nuw (i8, ptr @executor_globals, i64 368), align 8, !tbaa !41
  %22 = and i32 %21, 4
  %.not = icmp eq i32 %22, 0
  call void @llvm.assume(i1 %.not)
  %.not1819 = icmp eq i32 %18, 0
  br i1 %.not1819, label %.loopexit, label %.lr.ph

.lr.ph:                                           ; preds = %16, %32
  %.01720 = phi ptr [ %33, %32 ], [ %17, %16 ]
  %23 = getelementptr inbounds nuw i8, ptr %.01720, i64 8
  %24 = load i8, ptr %23, align 8, !tbaa !41
  %25 = icmp eq i8 %24, 0
  br i1 %25, label %32, label %26, !prof !43

26:                                               ; preds = %.lr.ph
  %27 = getelementptr inbounds nuw i8, ptr %.01720, i64 24
  %28 = load ptr, ptr %27, align 8, !tbaa !44
  %29 = load i32, ptr getelementptr inbounds nuw (i8, ptr @phpdbg_globals, i64 1508), align 4, !tbaa !38
  %30 = getelementptr inbounds nuw i8, ptr %28, i64 24
  %31 = call i32 (i32, i32, ptr, ...) @phpdbg_print(i32 noundef 3, i32 noundef %29, ptr noundef nonnull @.str.21, ptr noundef nonnull %30) #6
  br label %32

32:                                               ; preds = %.lr.ph, %26
  %33 = getelementptr inbounds nuw i8, ptr %.01720, i64 32
  %.not18 = icmp eq ptr %33, %20
  br i1 %.not18, label %.loopexit, label %.lr.ph

34:                                               ; preds = %10
  store ptr %4, ptr getelementptr inbounds nuw (i8, ptr @phpdbg_globals, i64 2176), align 8, !tbaa !4
  %35 = load i32, ptr getelementptr inbounds nuw (i8, ptr @phpdbg_globals, i64 1508), align 4, !tbaa !38
  %36 = call i32 (i32, i32, ptr, ...) @phpdbg_print(i32 noundef 1, i32 noundef %35, ptr noundef nonnull @.str.22) #6
  br label %.loopexit

.loopexit:                                        ; preds = %32, %16, %34
  store ptr %4, ptr getelementptr inbounds nuw (i8, ptr @phpdbg_globals, i64 2176), align 8, !tbaa !4
  call void @llvm.lifetime.end.p0(i64 200, ptr nonnull %3) #6
  br label %37

37:                                               ; preds = %7, %.loopexit
  ret i32 0
}